(dp0
S'states'
p1
ccopy_reg
_reconstructor
p2
(cutil
Counter
p3
c__builtin__
dict
p4
(dp5
(I5
I1
I3
I0
I-1
I0
tp6
(i__main__
GameState
p7
(dp8
S'data'
p9
(igame
GameStateData
p10
(dp11
S'_foodEaten'
p12
NsS'layout'
p13
(ilayout
Layout
p14
(dp15
S'capsules'
p16
(lp17
sS'numGhosts'
p18
I1
sS'food'
p19
(igame
Grid
p20
(dp21
S'CELLS_PER_INT'
p22
I30
sS'width'
p23
I10
sg9
(lp24
(lp25
I00
aI00
aI00
aa(lp26
I00
aI00
aI00
aa(lp27
I00
aI00
aI00
aa(lp28
I00
aI00
aI00
aa(lp29
I00
aI00
aI00
aa(lp30
I00
aI00
aI00
aa(lp31
I00
aI00
aI00
aa(lp32
I00
aI00
aI00
aa(lp33
I00
aI01
aI00
aa(lp34
I00
aI00
aI00
aasS'height'
p35
I3
sbsS'agentPositions'
p36
(lp37
(I01
(I5
I1
tp38
tp39
a(I00
(I1
I1
tp40
tp41
asg35
I3
sg23
I10
sS'walls'
p42
(igame
Grid
p43
(dp44
g22
I30
sg23
I10
sg9
(lp45
(lp46
I01
aI01
aI01
aa(lp47
I01
aI00
aI01
aa(lp48
I01
aI00
aI01
aa(lp49
I01
aI00
aI01
aa(lp50
I01
aI00
aI01
aa(lp51
I01
aI00
aI01
aa(lp52
I01
aI00
aI01
aa(lp53
I01
aI00
aI01
aa(lp54
I01
aI00
aI01
aa(lp55
I01
aI01
aI01
aasg35
I3
sbsS'totalFood'
p56
I1
sS'layoutText'
p57
(lp58
S'%%%%%%%%%%'
p59
aS'%G   P  .%'
p60
aS'%%%%%%%%%%'
p61
asbsg19
(igame
Grid
p62
(dp63
g22
I30
sg23
I10
sg9
(lp64
(lp65
I00
aI00
aI00
aa(lp66
I00
aI00
aI00
aa(lp67
I00
aI00
aI00
aa(lp68
I00
aI00
aI00
aa(lp69
I00
aI00
aI00
aa(lp70
I00
aI00
aI00
aa(lp71
I00
aI00
aI00
aa(lp72
I00
aI00
aI00
aa(lp73
I00
aI01
aI00
aa(lp74
I00
aI00
aI00
aasg35
I3
sbsS'_foodAdded'
p75
NsS'agentStates'
p76
(lp77
(igame
AgentState
p78
(dp79
S'numCarrying'
p80
I0
sS'scaredTimer'
p81
I0
sS'start'
p82
(igame
Configuration
p83
(dp84
S'direction'
p85
S'Stop'
p86
sS'pos'
p87
(I5
I1
tp88
sbsS'numReturned'
p89
I0
sS'configuration'
p90
(igame
Configuration
p91
(dp92
g85
S'East'
p93
sg87
(I5
I1
tp94
sbsS'isPacman'
p95
I01
sba(igame
AgentState
p96
(dp97
g80
I0
sg81
I0
sg82
(igame
Configuration
p98
(dp99
g85
g86
sg87
(I1
I1
tp100
sbsg89
I0
sg90
(igame
Configuration
p101
(dp102
g85
g93
sg87
(F4.0
F1.0
tp103
sbsg95
I00
sbasS'_win'
p104
I00
sS'_eaten'
p105
(lp106
I00
aI00
asS'score'
p107
I-3
sS'_agentMoved'
p108
I1
sS'_lose'
p109
I00
sS'scoreChange'
p110
I0
sg16
(lp111
sS'_capsuleEaten'
p112
Nsbsbs(I8
I1
NNI-2
I0
tp113
(i__main__
GameState
p114
(dp115
g9
(igame
GameStateData
p116
(dp117
g12
(I8
I1
tp118
sg13
(ilayout
Layout
p119
(dp120
g16
(lp121
sg18
I1
sg19
(igame
Grid
p122
(dp123
g22
I30
sg23
I10
sg9
(lp124
(lp125
I00
aI00
aI00
aa(lp126
I00
aI00
aI00
aa(lp127
I00
aI00
aI00
aa(lp128
I00
aI00
aI00
aa(lp129
I00
aI00
aI00
aa(lp130
I00
aI00
aI00
aa(lp131
I00
aI00
aI00
aa(lp132
I00
aI00
aI00
aa(lp133
I00
aI01
aI00
aa(lp134
I00
aI00
aI00
aasg35
I3
sbsg36
(lp135
(I01
g88
tp136
a(I00
g100
tp137
asg35
I3
sg23
I10
sg42
(igame
Grid
p138
(dp139
g22
I30
sg23
I10
sg9
(lp140
(lp141
I01
aI01
aI01
aa(lp142
I01
aI00
aI01
aa(lp143
I01
aI00
aI01
aa(lp144
I01
aI00
aI01
aa(lp145
I01
aI00
aI01
aa(lp146
I01
aI00
aI01
aa(lp147
I01
aI00
aI01
aa(lp148
I01
aI00
aI01
aa(lp149
I01
aI00
aI01
aa(lp150
I01
aI01
aI01
aasg35
I3
sbsg56
I1
sg57
(lp151
g59
ag60
ag61
asbsg19
(igame
Grid
p152
(dp153
g22
I30
sg23
I10
sg9
(lp154
(lp155
I00
aI00
aI00
aa(lp156
I00
aI00
aI00
aa(lp157
I00
aI00
aI00
aa(lp158
I00
aI00
aI00
aa(lp159
I00
aI00
aI00
aa(lp160
I00
aI00
aI00
aa(lp161
I00
aI00
aI00
aa(lp162
I00
aI00
aI00
aa(lp163
I00
aI00
aI00
aa(lp164
I00
aI00
aI00
aasg35
I3
sbsg75
Nsg76
(lp165
(igame
AgentState
p166
(dp167
g80
I0
sg81
I0
sg82
(igame
Configuration
p168
(dp169
g85
g86
sg87
g88
sbsg89
I0
sg90
(igame
Configuration
p170
(dp171
g85
g93
sg87
(I8
I1
tp172
sbsg95
I01
sba(igame
AgentState
p173
(dp174
g80
I0
sg81
I0
sg82
(igame
Configuration
p175
(dp176
g85
g86
sg87
g100
sbsg89
I0
sg90
(igame
Configuration
p177
(dp178
g85
g93
sg87
(F6.0
F1.0
tp179
sbsg95
I00
sbasg104
I01
sg105
(lp180
I00
aI00
asg107
I504
sg108
I0
sg109
I00
sg110
I509
sg16
(lp181
sg112
Nsbsbs(I7
I1
I1
I0
I-2
I0
tp182
(i__main__
GameState
p183
(dp184
g9
(igame
GameStateData
p185
(dp186
g12
Nsg13
(ilayout
Layout
p187
(dp188
g16
(lp189
sg18
I1
sg19
(igame
Grid
p190
(dp191
g22
I30
sg23
I10
sg9
(lp192
(lp193
I00
aI00
aI00
aa(lp194
I00
aI00
aI00
aa(lp195
I00
aI00
aI00
aa(lp196
I00
aI00
aI00
aa(lp197
I00
aI00
aI00
aa(lp198
I00
aI00
aI00
aa(lp199
I00
aI00
aI00
aa(lp200
I00
aI00
aI00
aa(lp201
I00
aI01
aI00
aa(lp202
I00
aI00
aI00
aasg35
I3
sbsg36
(lp203
(I01
(I5
I1
tp204
tp205
a(I00
(I1
I1
tp206
tp207
asg35
I3
sg23
I10
sg42
(igame
Grid
p208
(dp209
g22
I30
sg23
I10
sg9
(lp210
(lp211
I01
aI01
aI01
aa(lp212
I01
aI00
aI01
aa(lp213
I01
aI00
aI01
aa(lp214
I01
aI00
aI01
aa(lp215
I01
aI00
aI01
aa(lp216
I01
aI00
aI01
aa(lp217
I01
aI00
aI01
aa(lp218
I01
aI00
aI01
aa(lp219
I01
aI00
aI01
aa(lp220
I01
aI01
aI01
aasg35
I3
sbsg56
I1
sg57
(lp221
S'%%%%%%%%%%'
p222
aS'%G   P  .%'
p223
aS'%%%%%%%%%%'
p224
asbsg19
(igame
Grid
p225
(dp226
g22
I30
sg23
I10
sg9
(lp227
(lp228
I00
aI00
aI00
aa(lp229
I00
aI00
aI00
aa(lp230
I00
aI00
aI00
aa(lp231
I00
aI00
aI00
aa(lp232
I00
aI00
aI00
aa(lp233
I00
aI00
aI00
aa(lp234
I00
aI00
aI00
aa(lp235
I00
aI00
aI00
aa(lp236
I00
aI01
aI00
aa(lp237
I00
aI00
aI00
aasg35
I3
sbsg75
Nsg76
(lp238
(igame
AgentState
p239
(dp240
g80
I0
sg81
I0
sg82
(igame
Configuration
p241
(dp242
g85
S'Stop'
p243
sg87
(I5
I1
tp244
sbsg89
I0
sg90
(igame
Configuration
p245
(dp246
g85
S'East'
p247
sg87
(I7
I1
tp248
sbsg95
I01
sba(igame
AgentState
p249
(dp250
g80
I0
sg81
I0
sg82
(igame
Configuration
p251
(dp252
g85
g243
sg87
(I1
I1
tp253
sbsg89
I0
sg90
(igame
Configuration
p254
(dp255
g85
g247
sg87
(F5.0
F1.0
tp256
sbsg95
I00
sbasg104
I00
sg105
(lp257
I00
aI00
asg107
I-4
sg108
I1
sg109
I00
sg110
I0
sg16
(lp258
sg112
Nsbsbs(I6
I1
I2
I0
I0
I0
tp259
(i__main__
GameState
p260
(dp261
g9
(igame
GameStateData
p262
(dp263
g12
Nsg13
(ilayout
Layout
p264
(dp265
g16
(lp266
sg18
I1
sg19
(igame
Grid
p267
(dp268
g22
I30
sg23
I10
sg9
(lp269
(lp270
I00
aI00
aI00
aa(lp271
I00
aI00
aI00
aa(lp272
I00
aI00
aI00
aa(lp273
I00
aI00
aI00
aa(lp274
I00
aI00
aI00
aa(lp275
I00
aI00
aI00
aa(lp276
I00
aI00
aI00
aa(lp277
I00
aI00
aI00
aa(lp278
I00
aI01
aI00
aa(lp279
I00
aI00
aI00
aasg35
I3
sbsg36
(lp280
(I01
g244
tp281
a(I00
g253
tp282
asg35
I3
sg23
I10
sg42
(igame
Grid
p283
(dp284
g22
I30
sg23
I10
sg9
(lp285
(lp286
I01
aI01
aI01
aa(lp287
I01
aI00
aI01
aa(lp288
I01
aI00
aI01
aa(lp289
I01
aI00
aI01
aa(lp290
I01
aI00
aI01
aa(lp291
I01
aI00
aI01
aa(lp292
I01
aI00
aI01
aa(lp293
I01
aI00
aI01
aa(lp294
I01
aI00
aI01
aa(lp295
I01
aI01
aI01
aasg35
I3
sbsg56
I1
sg57
(lp296
g222
ag223
ag224
asbsg19
(igame
Grid
p297
(dp298
g22
I30
sg23
I10
sg9
(lp299
(lp300
I00
aI00
aI00
aa(lp301
I00
aI00
aI00
aa(lp302
I00
aI00
aI00
aa(lp303
I00
aI00
aI00
aa(lp304
I00
aI00
aI00
aa(lp305
I00
aI00
aI00
aa(lp306
I00
aI00
aI00
aa(lp307
I00
aI00
aI00
aa(lp308
I00
aI01
aI00
aa(lp309
I00
aI00
aI00
aasg35
I3
sbsg75
Nsg76
(lp310
(igame
AgentState
p311
(dp312
g80
I0
sg81
I0
sg82
g241
sg89
I0
sg90
(igame
Configuration
p313
(dp314
g85
S'West'
p315
sg87
(I6
I1
tp316
sbsg95
I01
sba(igame
AgentState
p317
(dp318
g80
I0
sg81
I0
sg82
g251
sg89
I0
sg90
(igame
Configuration
p319
(dp320
g85
g247
sg87
(F6.0
F1.0
tp321
sbsg95
I00
sbasg104
I00
sg105
(lp322
I00
aI00
asg107
I-505
sg108
I1
sg109
I01
sg110
I-500
sg16
(lp323
sg112
Nsbsbs(I5
I1
I3
I0
I-3
I0
tp324
(i__main__
GameState
p325
(dp326
g9
(igame
GameStateData
p327
(dp328
g12
Nsg13
(ilayout
Layout
p329
(dp330
g16
(lp331
sg18
I1
sg19
(igame
Grid
p332
(dp333
g22
I30
sg23
I10
sg9
(lp334
(lp335
I00
aI00
aI00
aa(lp336
I00
aI00
aI00
aa(lp337
I00
aI00
aI00
aa(lp338
I00
aI00
aI00
aa(lp339
I00
aI00
aI00
aa(lp340
I00
aI00
aI00
aa(lp341
I00
aI00
aI00
aa(lp342
I00
aI00
aI00
aa(lp343
I00
aI01
aI00
aa(lp344
I00
aI00
aI00
aasg35
I3
sbsg36
(lp345
(I01
(I5
I1
tp346
tp347
a(I00
(I1
I1
tp348
tp349
asg35
I3
sg23
I10
sg42
(igame
Grid
p350
(dp351
g22
I30
sg23
I10
sg9
(lp352
(lp353
I01
aI01
aI01
aa(lp354
I01
aI00
aI01
aa(lp355
I01
aI00
aI01
aa(lp356
I01
aI00
aI01
aa(lp357
I01
aI00
aI01
aa(lp358
I01
aI00
aI01
aa(lp359
I01
aI00
aI01
aa(lp360
I01
aI00
aI01
aa(lp361
I01
aI00
aI01
aa(lp362
I01
aI01
aI01
aasg35
I3
sbsg56
I1
sg57
(lp363
g59
ag60
ag61
asbsg19
(igame
Grid
p364
(dp365
g22
I30
sg23
I10
sg9
(lp366
(lp367
I00
aI00
aI00
aa(lp368
I00
aI00
aI00
aa(lp369
I00
aI00
aI00
aa(lp370
I00
aI00
aI00
aa(lp371
I00
aI00
aI00
aa(lp372
I00
aI00
aI00
aa(lp373
I00
aI00
aI00
aa(lp374
I00
aI00
aI00
aa(lp375
I00
aI01
aI00
aa(lp376
I00
aI00
aI00
aasg35
I3
sbsg75
Nsg76
(lp377
(igame
AgentState
p378
(dp379
g80
I0
sg81
I0
sg82
g83
sg89
I0
sg90
(igame
Configuration
p380
(dp381
g85
g86
sg87
(I5
I1
tp382
sbsg95
I01
sba(igame
AgentState
p383
(dp384
g80
I0
sg81
I0
sg82
g98
sg89
I0
sg90
(igame
Configuration
p385
(dp386
g85
g93
sg87
(F2.0
F1.0
tp387
sbsg95
I00
sbasg104
I00
sg105
(lp388
I00
aI00
asg107
I-1
sg108
I1
sg109
I00
sg110
I0
sg16
(lp389
sg112
Nsbsbs(I5
I1
I3
I0
I0
I0
tp390
(i__main__
GameState
p391
(dp392
g9
(igame
GameStateData
p393
(dp394
g12
Nsg13
g119
sg19
(igame
Grid
p395
(dp396
g22
I30
sg23
I10
sg9
(lp397
(lp398
I00
aI00
aI00
aa(lp399
I00
aI00
aI00
aa(lp400
I00
aI00
aI00
aa(lp401
I00
aI00
aI00
aa(lp402
I00
aI00
aI00
aa(lp403
I00
aI00
aI00
aa(lp404
I00
aI00
aI00
aa(lp405
I00
aI00
aI00
aa(lp406
I00
aI01
aI00
aa(lp407
I00
aI00
aI00
aasg35
I3
sbsg75
Nsg76
(lp408
(igame
AgentState
p409
(dp410
g80
I0
sg81
I0
sg82
g83
sg89
I0
sg90
(igame
Configuration
p411
(dp412
g85
g93
sg87
(I5
I1
tp413
sbsg95
I01
sba(igame
AgentState
p414
(dp415
g80
I0
sg81
I0
sg82
g98
sg89
I0
sg90
(igame
Configuration
p416
(dp417
g85
g93
sg87
(F5.0
F1.0
tp418
sbsg95
I00
sbasg104
I00
sg105
(lp419
I00
aI00
asg107
I-504
sg108
I1
sg109
I01
sg110
I-500
sg16
(lp420
sg112
Nsbsbs(I7
I1
I1
I0
I-4
I0
tp421
(i__main__
GameState
p422
(dp423
g9
(igame
GameStateData
p424
(dp425
g12
Nsg13
(ilayout
Layout
p426
(dp427
g16
(lp428
sg18
I1
sg19
(igame
Grid
p429
(dp430
g22
I30
sg23
I10
sg9
(lp431
(lp432
I00
aI00
aI00
aa(lp433
I00
aI00
aI00
aa(lp434
I00
aI00
aI00
aa(lp435
I00
aI00
aI00
aa(lp436
I00
aI00
aI00
aa(lp437
I00
aI00
aI00
aa(lp438
I00
aI00
aI00
aa(lp439
I00
aI00
aI00
aa(lp440
I00
aI01
aI00
aa(lp441
I00
aI00
aI00
aasg35
I3
sbsg36
(lp442
(I01
(I5
I1
tp443
tp444
a(I00
(I1
I1
tp445
tp446
asg35
I3
sg23
I10
sg42
(igame
Grid
p447
(dp448
g22
I30
sg23
I10
sg9
(lp449
(lp450
I01
aI01
aI01
aa(lp451
I01
aI00
aI01
aa(lp452
I01
aI00
aI01
aa(lp453
I01
aI00
aI01
aa(lp454
I01
aI00
aI01
aa(lp455
I01
aI00
aI01
aa(lp456
I01
aI00
aI01
aa(lp457
I01
aI00
aI01
aa(lp458
I01
aI00
aI01
aa(lp459
I01
aI01
aI01
aasg35
I3
sbsg56
I1
sg57
(lp460
g59
ag60
ag61
asbsg19
(igame
Grid
p461
(dp462
g22
I30
sg23
I10
sg9
(lp463
(lp464
I00
aI00
aI00
aa(lp465
I00
aI00
aI00
aa(lp466
I00
aI00
aI00
aa(lp467
I00
aI00
aI00
aa(lp468
I00
aI00
aI00
aa(lp469
I00
aI00
aI00
aa(lp470
I00
aI00
aI00
aa(lp471
I00
aI00
aI00
aa(lp472
I00
aI01
aI00
aa(lp473
I00
aI00
aI00
aasg35
I3
sbsg75
Nsg76
(lp474
(igame
AgentState
p475
(dp476
g80
I0
sg81
I0
sg82
(igame
Configuration
p477
(dp478
g85
g86
sg87
g88
sbsg89
I0
sg90
(igame
Configuration
p479
(dp480
g85
g93
sg87
(I7
I1
tp481
sbsg95
I01
sba(igame
AgentState
p482
(dp483
g80
I0
sg81
I0
sg82
(igame
Configuration
p484
(dp485
g85
g86
sg87
g100
sbsg89
I0
sg90
(igame
Configuration
p486
(dp487
g85
g93
sg87
(F3.0
F1.0
tp488
sbsg95
I00
sbasg104
I00
sg105
(lp489
I00
aI00
asg107
I-2
sg108
I1
sg109
I00
sg110
I0
sg16
(lp490
sg112
Nsbsbs(I6
I1
I2
I0
I-2
I0
tp491
(i__main__
GameState
p492
(dp493
g9
(igame
GameStateData
p494
(dp495
g12
Nsg13
(ilayout
Layout
p496
(dp497
g16
(lp498
sg18
I1
sg19
(igame
Grid
p499
(dp500
g22
I30
sg23
I10
sg9
(lp501
(lp502
I00
aI00
aI00
aa(lp503
I00
aI00
aI00
aa(lp504
I00
aI00
aI00
aa(lp505
I00
aI00
aI00
aa(lp506
I00
aI00
aI00
aa(lp507
I00
aI00
aI00
aa(lp508
I00
aI00
aI00
aa(lp509
I00
aI00
aI00
aa(lp510
I00
aI01
aI00
aa(lp511
I00
aI00
aI00
aasg35
I3
sbsg36
(lp512
(I01
(I5
I1
tp513
tp514
a(I00
(I1
I1
tp515
tp516
asg35
I3
sg23
I10
sg42
(igame
Grid
p517
(dp518
g22
I30
sg23
I10
sg9
(lp519
(lp520
I01
aI01
aI01
aa(lp521
I01
aI00
aI01
aa(lp522
I01
aI00
aI01
aa(lp523
I01
aI00
aI01
aa(lp524
I01
aI00
aI01
aa(lp525
I01
aI00
aI01
aa(lp526
I01
aI00
aI01
aa(lp527
I01
aI00
aI01
aa(lp528
I01
aI00
aI01
aa(lp529
I01
aI01
aI01
aasg35
I3
sbsg56
I1
sg57
(lp530
g59
ag60
ag61
asbsg19
(igame
Grid
p531
(dp532
g22
I30
sg23
I10
sg9
(lp533
(lp534
I00
aI00
aI00
aa(lp535
I00
aI00
aI00
aa(lp536
I00
aI00
aI00
aa(lp537
I00
aI00
aI00
aa(lp538
I00
aI00
aI00
aa(lp539
I00
aI00
aI00
aa(lp540
I00
aI00
aI00
aa(lp541
I00
aI00
aI00
aa(lp542
I00
aI01
aI00
aa(lp543
I00
aI00
aI00
aasg35
I3
sbsg75
Nsg76
(lp544
(igame
AgentState
p545
(dp546
g80
I0
sg81
I0
sg82
(igame
Configuration
p547
(dp548
g85
g86
sg87
g88
sbsg89
I0
sg90
(igame
Configuration
p549
(dp550
g85
g93
sg87
(I6
I1
tp551
sbsg95
I01
sba(igame
AgentState
p552
(dp553
g80
I0
sg81
I0
sg82
(igame
Configuration
p554
(dp555
g85
g86
sg87
g100
sbsg89
I0
sg90
(igame
Configuration
p556
(dp557
g85
g93
sg87
(F4.0
F1.0
tp558
sbsg95
I00
sbasg104
I00
sg105
(lp559
I00
aI00
asg107
I-3
sg108
I1
sg109
I00
sg110
I0
sg16
(lp560
sg112
Nsbsbs(I4
I1
I4
I0
I-1
I0
tp561
(i__main__
GameState
p562
(dp563
g9
(igame
GameStateData
p564
(dp565
g12
Nsg13
(ilayout
Layout
p566
(dp567
g16
(lp568
sg18
I1
sg19
(igame
Grid
p569
(dp570
g22
I30
sg23
I10
sg9
(lp571
(lp572
I00
aI00
aI00
aa(lp573
I00
aI00
aI00
aa(lp574
I00
aI00
aI00
aa(lp575
I00
aI00
aI00
aa(lp576
I00
aI00
aI00
aa(lp577
I00
aI00
aI00
aa(lp578
I00
aI00
aI00
aa(lp579
I00
aI00
aI00
aa(lp580
I00
aI01
aI00
aa(lp581
I00
aI00
aI00
aasg35
I3
sbsg36
(lp582
(I01
(I5
I1
tp583
tp584
a(I00
(I1
I1
tp585
tp586
asg35
I3
sg23
I10
sg42
(igame
Grid
p587
(dp588
g22
I30
sg23
I10
sg9
(lp589
(lp590
I01
aI01
aI01
aa(lp591
I01
aI00
aI01
aa(lp592
I01
aI00
aI01
aa(lp593
I01
aI00
aI01
aa(lp594
I01
aI00
aI01
aa(lp595
I01
aI00
aI01
aa(lp596
I01
aI00
aI01
aa(lp597
I01
aI00
aI01
aa(lp598
I01
aI00
aI01
aa(lp599
I01
aI01
aI01
aasg35
I3
sbsg56
I1
sg57
(lp600
g59
ag60
ag61
asbsg19
(igame
Grid
p601
(dp602
g22
I30
sg23
I10
sg9
(lp603
(lp604
I00
aI00
aI00
aa(lp605
I00
aI00
aI00
aa(lp606
I00
aI00
aI00
aa(lp607
I00
aI00
aI00
aa(lp608
I00
aI00
aI00
aa(lp609
I00
aI00
aI00
aa(lp610
I00
aI00
aI00
aa(lp611
I00
aI00
aI00
aa(lp612
I00
aI01
aI00
aa(lp613
I00
aI00
aI00
aasg35
I3
sbsg75
Nsg76
(lp614
(igame
AgentState
p615
(dp616
g80
I0
sg81
I0
sg82
g83
sg89
I0
sg90
(igame
Configuration
p617
(dp618
g85
S'West'
p619
sg87
(I4
I1
tp620
sbsg95
I01
sba(igame
AgentState
p621
(dp622
g80
I0
sg81
I0
sg82
g98
sg89
I0
sg90
(igame
Configuration
p623
(dp624
g85
g93
sg87
(F3.0
F1.0
tp625
sbsg95
I00
sbasg104
I00
sg105
(lp626
I00
aI00
asg107
I-2
sg108
I1
sg109
I00
sg110
I0
sg16
(lp627
sg112
Nsbsbs(I8
I1
NNI-4
I0
tp628
(i__main__
GameState
p629
(dp630
g9
(igame
GameStateData
p631
(dp632
g12
(I8
I1
tp633
sg13
g119
sg19
(igame
Grid
p634
(dp635
g22
I30
sg23
I10
sg9
(lp636
(lp637
I00
aI00
aI00
aa(lp638
I00
aI00
aI00
aa(lp639
I00
aI00
aI00
aa(lp640
I00
aI00
aI00
aa(lp641
I00
aI00
aI00
aa(lp642
I00
aI00
aI00
aa(lp643
I00
aI00
aI00
aa(lp644
I00
aI00
aI00
aa(lp645
I00
aI00
aI00
aa(lp646
I00
aI00
aI00
aasg35
I3
sbsg75
Nsg76
(lp647
(igame
AgentState
p648
(dp649
g80
I0
sg81
I0
sg82
(igame
Configuration
p650
(dp651
g85
g86
sg87
g88
sbsg89
I0
sg90
(igame
Configuration
p652
(dp653
g85
g93
sg87
(I8
I1
tp654
sbsg95
I01
sba(igame
AgentState
p655
(dp656
g80
I0
sg81
I0
sg82
(igame
Configuration
p657
(dp658
g85
g86
sg87
g100
sbsg89
I0
sg90
(igame
Configuration
p659
(dp660
g85
g93
sg87
(F4.0
F1.0
tp661
sbsg95
I00
sbasg104
I01
sg105
(lp662
I00
aI00
asg107
I506
sg108
I0
sg109
I00
sg110
I509
sg16
(lp663
sg112
Nsbsbs(I4
I1
I4
I0
I-2
I0
tp664
(i__main__
GameState
p665
(dp666
g9
(igame
GameStateData
p667
(dp668
g12
Nsg13
(ilayout
Layout
p669
(dp670
g16
(lp671
sg18
I1
sg19
(igame
Grid
p672
(dp673
g22
I30
sg23
I10
sg9
(lp674
(lp675
I00
aI00
aI00
aa(lp676
I00
aI00
aI00
aa(lp677
I00
aI00
aI00
aa(lp678
I00
aI00
aI00
aa(lp679
I00
aI00
aI00
aa(lp680
I00
aI00
aI00
aa(lp681
I00
aI00
aI00
aa(lp682
I00
aI00
aI00
aa(lp683
I00
aI01
aI00
aa(lp684
I00
aI00
aI00
aasg35
I3
sbsg36
(lp685
(I01
(I5
I1
tp686
tp687
a(I00
(I1
I1
tp688
tp689
asg35
I3
sg23
I10
sg42
(igame
Grid
p690
(dp691
g22
I30
sg23
I10
sg9
(lp692
(lp693
I01
aI01
aI01
aa(lp694
I01
aI00
aI01
aa(lp695
I01
aI00
aI01
aa(lp696
I01
aI00
aI01
aa(lp697
I01
aI00
aI01
aa(lp698
I01
aI00
aI01
aa(lp699
I01
aI00
aI01
aa(lp700
I01
aI00
aI01
aa(lp701
I01
aI00
aI01
aa(lp702
I01
aI01
aI01
aasg35
I3
sbsg56
I1
sg57
(lp703
g59
ag60
ag61
asbsg19
(igame
Grid
p704
(dp705
g22
I30
sg23
I10
sg9
(lp706
(lp707
I00
aI00
aI00
aa(lp708
I00
aI00
aI00
aa(lp709
I00
aI00
aI00
aa(lp710
I00
aI00
aI00
aa(lp711
I00
aI00
aI00
aa(lp712
I00
aI00
aI00
aa(lp713
I00
aI00
aI00
aa(lp714
I00
aI00
aI00
aa(lp715
I00
aI01
aI00
aa(lp716
I00
aI00
aI00
aasg35
I3
sbsg75
Nsg76
(lp717
(igame
AgentState
p718
(dp719
g80
I0
sg81
I0
sg82
g547
sg89
I0
sg90
(igame
Configuration
p720
(dp721
g85
g619
sg87
(I4
I1
tp722
sbsg95
I01
sba(igame
AgentState
p723
(dp724
g80
I0
sg81
I0
sg82
g554
sg89
I0
sg90
(igame
Configuration
p725
(dp726
g85
g93
sg87
(F2.0
F1.0
tp727
sbsg95
I00
sbasg104
I00
sg105
(lp728
I00
aI00
asg107
I-1
sg108
I1
sg109
I00
sg110
I0
sg16
(lp729
sg112
Nsbsbs(I5
I1
I3
I0
I-2
I0
tp730
(i__main__
GameState
p731
(dp732
g9
(igame
GameStateData
p733
(dp734
g12
Nsg13
(ilayout
Layout
p735
(dp736
g16
(lp737
sg18
I1
sg19
(igame
Grid
p738
(dp739
g22
I30
sg23
I10
sg9
(lp740
(lp741
I00
aI00
aI00
aa(lp742
I00
aI00
aI00
aa(lp743
I00
aI00
aI00
aa(lp744
I00
aI00
aI00
aa(lp745
I00
aI00
aI00
aa(lp746
I00
aI00
aI00
aa(lp747
I00
aI00
aI00
aa(lp748
I00
aI00
aI00
aa(lp749
I00
aI01
aI00
aa(lp750
I00
aI00
aI00
aasg35
I3
sbsg36
(lp751
(I01
(I5
I1
tp752
tp753
a(I00
(I1
I1
tp754
tp755
asg35
I3
sg23
I10
sg42
(igame
Grid
p756
(dp757
g22
I30
sg23
I10
sg9
(lp758
(lp759
I01
aI01
aI01
aa(lp760
I01
aI00
aI01
aa(lp761
I01
aI00
aI01
aa(lp762
I01
aI00
aI01
aa(lp763
I01
aI00
aI01
aa(lp764
I01
aI00
aI01
aa(lp765
I01
aI00
aI01
aa(lp766
I01
aI00
aI01
aa(lp767
I01
aI00
aI01
aa(lp768
I01
aI01
aI01
aasg35
I3
sbsg56
I1
sg57
(lp769
g59
ag60
ag61
asbsg19
(igame
Grid
p770
(dp771
g22
I30
sg23
I10
sg9
(lp772
(lp773
I00
aI00
aI00
aa(lp774
I00
aI00
aI00
aa(lp775
I00
aI00
aI00
aa(lp776
I00
aI00
aI00
aa(lp777
I00
aI00
aI00
aa(lp778
I00
aI00
aI00
aa(lp779
I00
aI00
aI00
aa(lp780
I00
aI00
aI00
aa(lp781
I00
aI01
aI00
aa(lp782
I00
aI00
aI00
aasg35
I3
sbsg75
Nsg76
(lp783
(igame
AgentState
p784
(dp785
g80
I0
sg81
I0
sg82
(igame
Configuration
p786
(dp787
g85
g86
sg87
g88
sbsg89
I0
sg90
(igame
Configuration
p788
(dp789
g85
g619
sg87
(I5
I1
tp790
sbsg95
I01
sba(igame
AgentState
p791
(dp792
g80
I0
sg81
I0
sg82
(igame
Configuration
p793
(dp794
g85
g86
sg87
g100
sbsg89
I0
sg90
(igame
Configuration
p795
(dp796
g85
g93
sg87
(F3.0
F1.0
tp797
sbsg95
I00
sbasg104
I00
sg105
(lp798
I00
aI00
asg107
I-2
sg108
I1
sg109
I00
sg110
I0
sg16
(lp799
sg112
Nsbsbs(I8
I1
NNI-3
I0
tp800
(i__main__
GameState
p801
(dp802
g9
(igame
GameStateData
p803
(dp804
g12
(I8
I1
tp805
sg13
g119
sg19
(igame
Grid
p806
(dp807
g22
I30
sg23
I10
sg9
(lp808
(lp809
I00
aI00
aI00
aa(lp810
I00
aI00
aI00
aa(lp811
I00
aI00
aI00
aa(lp812
I00
aI00
aI00
aa(lp813
I00
aI00
aI00
aa(lp814
I00
aI00
aI00
aa(lp815
I00
aI00
aI00
aa(lp816
I00
aI00
aI00
aa(lp817
I00
aI00
aI00
aa(lp818
I00
aI00
aI00
aasg35
I3
sbsg75
Nsg76
(lp819
(igame
AgentState
p820
(dp821
g80
I0
sg81
I0
sg82
(igame
Configuration
p822
(dp823
g85
g86
sg87
g88
sbsg89
I0
sg90
(igame
Configuration
p824
(dp825
g85
g93
sg87
(I8
I1
tp826
sbsg95
I01
sba(igame
AgentState
p827
(dp828
g80
I0
sg81
I0
sg82
(igame
Configuration
p829
(dp830
g85
g86
sg87
g100
sbsg89
I0
sg90
(igame
Configuration
p831
(dp832
g85
g93
sg87
(F5.0
F1.0
tp833
sbsg95
I00
sbasg104
I01
sg105
(lp834
I00
aI00
asg107
I505
sg108
I0
sg109
I00
sg110
I509
sg16
(lp835
sg112
Nsbsbs(I7
I1
I1
I0
I-3
I0
tp836
(i__main__
GameState
p837
(dp838
g9
(igame
GameStateData
p839
(dp840
g12
Nsg13
(ilayout
Layout
p841
(dp842
g16
(lp843
sg18
I1
sg19
(igame
Grid
p844
(dp845
g22
I30
sg23
I10
sg9
(lp846
(lp847
I00
aI00
aI00
aa(lp848
I00
aI00
aI00
aa(lp849
I00
aI00
aI00
aa(lp850
I00
aI00
aI00
aa(lp851
I00
aI00
aI00
aa(lp852
I00
aI00
aI00
aa(lp853
I00
aI00
aI00
aa(lp854
I00
aI00
aI00
aa(lp855
I00
aI01
aI00
aa(lp856
I00
aI00
aI00
aasg35
I3
sbsg36
(lp857
(I01
(I5
I1
tp858
tp859
a(I00
(I1
I1
tp860
tp861
asg35
I3
sg23
I10
sg42
(igame
Grid
p862
(dp863
g22
I30
sg23
I10
sg9
(lp864
(lp865
I01
aI01
aI01
aa(lp866
I01
aI00
aI01
aa(lp867
I01
aI00
aI01
aa(lp868
I01
aI00
aI01
aa(lp869
I01
aI00
aI01
aa(lp870
I01
aI00
aI01
aa(lp871
I01
aI00
aI01
aa(lp872
I01
aI00
aI01
aa(lp873
I01
aI00
aI01
aa(lp874
I01
aI01
aI01
aasg35
I3
sbsg56
I1
sg57
(lp875
g222
ag223
ag224
asbsg19
(igame
Grid
p876
(dp877
g22
I30
sg23
I10
sg9
(lp878
(lp879
I00
aI00
aI00
aa(lp880
I00
aI00
aI00
aa(lp881
I00
aI00
aI00
aa(lp882
I00
aI00
aI00
aa(lp883
I00
aI00
aI00
aa(lp884
I00
aI00
aI00
aa(lp885
I00
aI00
aI00
aa(lp886
I00
aI00
aI00
aa(lp887
I00
aI01
aI00
aa(lp888
I00
aI00
aI00
aasg35
I3
sbsg75
Nsg76
(lp889
(igame
AgentState
p890
(dp891
g80
I0
sg81
I0
sg82
g241
sg89
I0
sg90
(igame
Configuration
p892
(dp893
g85
g247
sg87
(I7
I1
tp894
sbsg95
I01
sba(igame
AgentState
p895
(dp896
g80
I0
sg81
I0
sg82
g251
sg89
I0
sg90
(igame
Configuration
p897
(dp898
g85
g247
sg87
(F4.0
F1.0
tp899
sbsg95
I00
sbasg104
I00
sg105
(lp900
I00
aI00
asg107
I-3
sg108
I1
sg109
I00
sg110
I0
sg16
(lp901
sg112
Nsbsbs(I6
I1
I2
I0
I-1
I0
tp902
(i__main__
GameState
p903
(dp904
g9
(igame
GameStateData
p905
(dp906
g12
Nsg13
(ilayout
Layout
p907
(dp908
g16
(lp909
sg18
I1
sg19
(igame
Grid
p910
(dp911
g22
I30
sg23
I10
sg9
(lp912
(lp913
I00
aI00
aI00
aa(lp914
I00
aI00
aI00
aa(lp915
I00
aI00
aI00
aa(lp916
I00
aI00
aI00
aa(lp917
I00
aI00
aI00
aa(lp918
I00
aI00
aI00
aa(lp919
I00
aI00
aI00
aa(lp920
I00
aI00
aI00
aa(lp921
I00
aI01
aI00
aa(lp922
I00
aI00
aI00
aasg35
I3
sbsg36
(lp923
(I01
(I5
I1
tp924
tp925
a(I00
(I1
I1
tp926
tp927
asg35
I3
sg23
I10
sg42
(igame
Grid
p928
(dp929
g22
I30
sg23
I10
sg9
(lp930
(lp931
I01
aI01
aI01
aa(lp932
I01
aI00
aI01
aa(lp933
I01
aI00
aI01
aa(lp934
I01
aI00
aI01
aa(lp935
I01
aI00
aI01
aa(lp936
I01
aI00
aI01
aa(lp937
I01
aI00
aI01
aa(lp938
I01
aI00
aI01
aa(lp939
I01
aI00
aI01
aa(lp940
I01
aI01
aI01
aasg35
I3
sbsg56
I1
sg57
(lp941
g59
ag60
ag61
asbsg19
(igame
Grid
p942
(dp943
g22
I30
sg23
I10
sg9
(lp944
(lp945
I00
aI00
aI00
aa(lp946
I00
aI00
aI00
aa(lp947
I00
aI00
aI00
aa(lp948
I00
aI00
aI00
aa(lp949
I00
aI00
aI00
aa(lp950
I00
aI00
aI00
aa(lp951
I00
aI00
aI00
aa(lp952
I00
aI00
aI00
aa(lp953
I00
aI01
aI00
aa(lp954
I00
aI00
aI00
aasg35
I3
sbsg75
Nsg76
(lp955
(igame
AgentState
p956
(dp957
g80
I0
sg81
I0
sg82
(igame
Configuration
p958
(dp959
g85
g86
sg87
g88
sbsg89
I0
sg90
(igame
Configuration
p960
(dp961
g85
g619
sg87
(I6
I1
tp962
sbsg95
I01
sba(igame
AgentState
p963
(dp964
g80
I0
sg81
I0
sg82
(igame
Configuration
p965
(dp966
g85
g86
sg87
g100
sbsg89
I0
sg90
(igame
Configuration
p967
(dp968
g85
g93
sg87
(F5.0
F1.0
tp969
sbsg95
I00
sbasg104
I00
sg105
(lp970
I00
aI00
asg107
I-4
sg108
I1
sg109
I00
sg110
I0
sg16
(lp971
sg112
Nsbsbs(I4
I1
I4
I0
I0
I0
tp972
(i__main__
GameState
p973
(dp974
g9
(igame
GameStateData
p975
(dp976
g12
Nsg13
g119
sg19
(igame
Grid
p977
(dp978
g22
I30
sg23
I10
sg9
(lp979
(lp980
I00
aI00
aI00
aa(lp981
I00
aI00
aI00
aa(lp982
I00
aI00
aI00
aa(lp983
I00
aI00
aI00
aa(lp984
I00
aI00
aI00
aa(lp985
I00
aI00
aI00
aa(lp986
I00
aI00
aI00
aa(lp987
I00
aI00
aI00
aa(lp988
I00
aI01
aI00
aa(lp989
I00
aI00
aI00
aasg35
I3
sbsg75
Nsg76
(lp990
(igame
AgentState
p991
(dp992
g80
I0
sg81
I0
sg82
g786
sg89
I0
sg90
(igame
Configuration
p993
(dp994
g85
g619
sg87
(I4
I1
tp995
sbsg95
I01
sba(igame
AgentState
p996
(dp997
g80
I0
sg81
I0
sg82
g793
sg89
I0
sg90
(igame
Configuration
p998
(dp999
g85
g93
sg87
(F4.0
F1.0
tp1000
sbsg95
I00
sbasg104
I00
sg105
(lp1001
I00
aI00
asg107
I-503
sg108
I1
sg109
I01
sg110
I-500
sg16
(lp1002
sg112
Nsbsbs(I5
I1
I3
I0
I-4
I0
tp1003
(i__main__
GameState
p1004
(dp1005
g9
(igame
GameStateData
p1006
(dp1007
g12
Nsg13
(ilayout
Layout
p1008
(dp1009
g16
(lp1010
sg18
I1
sg19
(igame
Grid
p1011
(dp1012
g22
I30
sg23
I10
sg9
(lp1013
(lp1014
I00
aI00
aI00
aa(lp1015
I00
aI00
aI00
aa(lp1016
I00
aI00
aI00
aa(lp1017
I00
aI00
aI00
aa(lp1018
I00
aI00
aI00
aa(lp1019
I00
aI00
aI00
aa(lp1020
I00
aI00
aI00
aa(lp1021
I00
aI00
aI00
aa(lp1022
I00
aI01
aI00
aa(lp1023
I00
aI00
aI00
aasg35
I3
sbsg36
(lp1024
(I01
(I5
I1
tp1025
tp1026
a(I00
(I1
I1
tp1027
tp1028
asg35
I3
sg23
I10
sg42
(igame
Grid
p1029
(dp1030
g22
I30
sg23
I10
sg9
(lp1031
(lp1032
I01
aI01
aI01
aa(lp1033
I01
aI00
aI01
aa(lp1034
I01
aI00
aI01
aa(lp1035
I01
aI00
aI01
aa(lp1036
I01
aI00
aI01
aa(lp1037
I01
aI00
aI01
aa(lp1038
I01
aI00
aI01
aa(lp1039
I01
aI00
aI01
aa(lp1040
I01
aI00
aI01
aa(lp1041
I01
aI01
aI01
aasg35
I3
sbsg56
I1
sg57
(lp1042
g222
ag223
ag224
asbsg19
(igame
Grid
p1043
(dp1044
g22
I30
sg23
I10
sg9
(lp1045
(lp1046
I00
aI00
aI00
aa(lp1047
I00
aI00
aI00
aa(lp1048
I00
aI00
aI00
aa(lp1049
I00
aI00
aI00
aa(lp1050
I00
aI00
aI00
aa(lp1051
I00
aI00
aI00
aa(lp1052
I00
aI00
aI00
aa(lp1053
I00
aI00
aI00
aa(lp1054
I00
aI01
aI00
aa(lp1055
I00
aI00
aI00
aasg35
I3
sbsg75
Nsg76
(lp1056
(igame
AgentState
p1057
(dp1058
g80
I0
sg81
I0
sg82
g241
sg89
I0
sg90
g241
sg95
I01
sba(igame
AgentState
p1059
(dp1060
g80
I0
sg81
I0
sg82
g251
sg89
I0
sg90
g251
sg95
I00
sbasg104
I00
sg105
(lp1061
I00
aI00
asg107
I0
sg108
Nsg109
I00
sg110
I0
sg16
(lp1062
sg112
Nsbsbs(I7
I1
I1
I0
I-1
I0
tp1063
(i__main__
GameState
p1064
(dp1065
g9
(igame
GameStateData
p1066
(dp1067
g12
Nsg13
(ilayout
Layout
p1068
(dp1069
g16
(lp1070
sg18
I1
sg19
(igame
Grid
p1071
(dp1072
g22
I30
sg23
I10
sg9
(lp1073
(lp1074
I00
aI00
aI00
aa(lp1075
I00
aI00
aI00
aa(lp1076
I00
aI00
aI00
aa(lp1077
I00
aI00
aI00
aa(lp1078
I00
aI00
aI00
aa(lp1079
I00
aI00
aI00
aa(lp1080
I00
aI00
aI00
aa(lp1081
I00
aI00
aI00
aa(lp1082
I00
aI01
aI00
aa(lp1083
I00
aI00
aI00
aasg35
I3
sbsg36
(lp1084
(I01
(I5
I1
tp1085
tp1086
a(I00
(I1
I1
tp1087
tp1088
asg35
I3
sg23
I10
sg42
(igame
Grid
p1089
(dp1090
g22
I30
sg23
I10
sg9
(lp1091
(lp1092
I01
aI01
aI01
aa(lp1093
I01
aI00
aI01
aa(lp1094
I01
aI00
aI01
aa(lp1095
I01
aI00
aI01
aa(lp1096
I01
aI00
aI01
aa(lp1097
I01
aI00
aI01
aa(lp1098
I01
aI00
aI01
aa(lp1099
I01
aI00
aI01
aa(lp1100
I01
aI00
aI01
aa(lp1101
I01
aI01
aI01
aasg35
I3
sbsg56
I1
sg57
(lp1102
g59
ag60
ag61
asbsg19
(igame
Grid
p1103
(dp1104
g22
I30
sg23
I10
sg9
(lp1105
(lp1106
I00
aI00
aI00
aa(lp1107
I00
aI00
aI00
aa(lp1108
I00
aI00
aI00
aa(lp1109
I00
aI00
aI00
aa(lp1110
I00
aI00
aI00
aa(lp1111
I00
aI00
aI00
aa(lp1112
I00
aI00
aI00
aa(lp1113
I00
aI00
aI00
aa(lp1114
I00
aI01
aI00
aa(lp1115
I00
aI00
aI00
aasg35
I3
sbsg75
Nsg76
(lp1116
(igame
AgentState
p1117
(dp1118
g80
I0
sg81
I0
sg82
g958
sg89
I0
sg90
(igame
Configuration
p1119
(dp1120
g85
g93
sg87
(I7
I1
tp1121
sbsg95
I01
sba(igame
AgentState
p1122
(dp1123
g80
I0
sg81
I0
sg82
g965
sg89
I0
sg90
(igame
Configuration
p1124
(dp1125
g85
g93
sg87
(F6.0
F1.0
tp1126
sbsg95
I00
sbasg104
I00
sg105
(lp1127
I00
aI00
asg107
I-5
sg108
I1
sg109
I00
sg110
I0
sg16
(lp1128
sg112
Nsbsbs(I8
I1
NNI-5
I0
tp1129
(i__main__
GameState
p1130
(dp1131
g9
(igame
GameStateData
p1132
(dp1133
g12
(I8
I1
tp1134
sg13
g119
sg19
(igame
Grid
p1135
(dp1136
g22
I30
sg23
I10
sg9
(lp1137
(lp1138
I00
aI00
aI00
aa(lp1139
I00
aI00
aI00
aa(lp1140
I00
aI00
aI00
aa(lp1141
I00
aI00
aI00
aa(lp1142
I00
aI00
aI00
aa(lp1143
I00
aI00
aI00
aa(lp1144
I00
aI00
aI00
aa(lp1145
I00
aI00
aI00
aa(lp1146
I00
aI00
aI00
aa(lp1147
I00
aI00
aI00
aasg35
I3
sbsg75
Nsg76
(lp1148
(igame
AgentState
p1149
(dp1150
g80
I0
sg81
I0
sg82
g477
sg89
I0
sg90
(igame
Configuration
p1151
(dp1152
g85
g93
sg87
(I8
I1
tp1153
sbsg95
I01
sba(igame
AgentState
p1154
(dp1155
g80
I0
sg81
I0
sg82
g484
sg89
I0
sg90
g486
sg95
I00
sbasg104
I01
sg105
(lp1156
I00
aI00
asg107
I507
sg108
I0
sg109
I00
sg110
I509
sg16
(lp1157
sg112
Nsbsbs(I3
I1
I5
I0
I0
I0
tp1158
(i__main__
GameState
p1159
(dp1160
g9
(igame
GameStateData
p1161
(dp1162
g12
Nsg13
g119
sg19
(igame
Grid
p1163
(dp1164
g22
I30
sg23
I10
sg9
(lp1165
(lp1166
I00
aI00
aI00
aa(lp1167
I00
aI00
aI00
aa(lp1168
I00
aI00
aI00
aa(lp1169
I00
aI00
aI00
aa(lp1170
I00
aI00
aI00
aa(lp1171
I00
aI00
aI00
aa(lp1172
I00
aI00
aI00
aa(lp1173
I00
aI00
aI00
aa(lp1174
I00
aI01
aI00
aa(lp1175
I00
aI00
aI00
aasg35
I3
sbsg75
Nsg76
(lp1176
(igame
AgentState
p1177
(dp1178
g80
I0
sg81
I0
sg82
(igame
Configuration
p1179
(dp1180
g85
g86
sg87
g88
sbsg89
I0
sg90
(igame
Configuration
p1181
(dp1182
g85
g619
sg87
(I3
I1
tp1183
sbsg95
I01
sba(igame
AgentState
p1184
(dp1185
g80
I0
sg81
I0
sg82
(igame
Configuration
p1186
(dp1187
g85
g86
sg87
g100
sbsg89
I0
sg90
(igame
Configuration
p1188
(dp1189
g85
g93
sg87
(F3.0
F1.0
tp1190
sbsg95
I00
sbasg104
I00
sg105
(lp1191
I00
aI00
asg107
I-502
sg108
I1
sg109
I01
sg110
I-500
sg16
(lp1192
sg112
Nsbsbs(I7
I1
I1
I0
I0
I0
tp1193
(i__main__
GameState
p1194
(dp1195
g9
(igame
GameStateData
p1196
(dp1197
g12
Nsg13
g119
sg19
(igame
Grid
p1198
(dp1199
g22
I30
sg23
I10
sg9
(lp1200
(lp1201
I00
aI00
aI00
aa(lp1202
I00
aI00
aI00
aa(lp1203
I00
aI00
aI00
aa(lp1204
I00
aI00
aI00
aa(lp1205
I00
aI00
aI00
aa(lp1206
I00
aI00
aI00
aa(lp1207
I00
aI00
aI00
aa(lp1208
I00
aI00
aI00
aa(lp1209
I00
aI01
aI00
aa(lp1210
I00
aI00
aI00
aasg35
I3
sbsg75
Nsg76
(lp1211
(igame
AgentState
p1212
(dp1213
g80
I0
sg81
I0
sg82
g958
sg89
I0
sg90
(igame
Configuration
p1214
(dp1215
g85
g93
sg87
(I7
I1
tp1216
sbsg95
I01
sba(igame
AgentState
p1217
(dp1218
g80
I0
sg81
I0
sg82
g965
sg89
I0
sg90
(igame
Configuration
p1219
(dp1220
g85
g93
sg87
(F7.0
F1.0
tp1221
sbsg95
I00
sbasg104
I00
sg105
(lp1222
I00
aI00
asg107
I-506
sg108
I1
sg109
I01
sg110
I-500
sg16
(lp1223
sg112
Nsbsbs(I6
I1
I2
I0
I-4
I0
tp1224
(i__main__
GameState
p1225
(dp1226
g9
(igame
GameStateData
p1227
(dp1228
g12
Nsg13
(ilayout
Layout
p1229
(dp1230
g16
(lp1231
sg18
I1
sg19
(igame
Grid
p1232
(dp1233
g22
I30
sg23
I10
sg9
(lp1234
(lp1235
I00
aI00
aI00
aa(lp1236
I00
aI00
aI00
aa(lp1237
I00
aI00
aI00
aa(lp1238
I00
aI00
aI00
aa(lp1239
I00
aI00
aI00
aa(lp1240
I00
aI00
aI00
aa(lp1241
I00
aI00
aI00
aa(lp1242
I00
aI00
aI00
aa(lp1243
I00
aI01
aI00
aa(lp1244
I00
aI00
aI00
aasg35
I3
sbsg36
(lp1245
(I01
(I5
I1
tp1246
tp1247
a(I00
(I1
I1
tp1248
tp1249
asg35
I3
sg23
I10
sg42
(igame
Grid
p1250
(dp1251
g22
I30
sg23
I10
sg9
(lp1252
(lp1253
I01
aI01
aI01
aa(lp1254
I01
aI00
aI01
aa(lp1255
I01
aI00
aI01
aa(lp1256
I01
aI00
aI01
aa(lp1257
I01
aI00
aI01
aa(lp1258
I01
aI00
aI01
aa(lp1259
I01
aI00
aI01
aa(lp1260
I01
aI00
aI01
aa(lp1261
I01
aI00
aI01
aa(lp1262
I01
aI01
aI01
aasg35
I3
sbsg56
I1
sg57
(lp1263
g222
ag223
ag224
asbsg19
(igame
Grid
p1264
(dp1265
g22
I30
sg23
I10
sg9
(lp1266
(lp1267
I00
aI00
aI00
aa(lp1268
I00
aI00
aI00
aa(lp1269
I00
aI00
aI00
aa(lp1270
I00
aI00
aI00
aa(lp1271
I00
aI00
aI00
aa(lp1272
I00
aI00
aI00
aa(lp1273
I00
aI00
aI00
aa(lp1274
I00
aI00
aI00
aa(lp1275
I00
aI01
aI00
aa(lp1276
I00
aI00
aI00
aasg35
I3
sbsg75
Nsg76
(lp1277
(igame
AgentState
p1278
(dp1279
g80
I0
sg81
I0
sg82
g241
sg89
I0
sg90
(igame
Configuration
p1280
(dp1281
g85
g247
sg87
(I6
I1
tp1282
sbsg95
I01
sba(igame
AgentState
p1283
(dp1284
g80
I0
sg81
I0
sg82
g251
sg89
I0
sg90
(igame
Configuration
p1285
(dp1286
g85
g247
sg87
(F2.0
F1.0
tp1287
sbsg95
I00
sbasg104
I00
sg105
(lp1288
I00
aI00
asg107
I-1
sg108
I1
sg109
I00
sg110
I0
sg16
(lp1289
sg112
Nsbsbs(I6
I1
I2
I0
I-3
I0
tp1290
(i__main__
GameState
p1291
(dp1292
g9
(igame
GameStateData
p1293
(dp1294
g12
Nsg13
(ilayout
Layout
p1295
(dp1296
g16
(lp1297
sg18
I1
sg19
(igame
Grid
p1298
(dp1299
g22
I30
sg23
I10
sg9
(lp1300
(lp1301
I00
aI00
aI00
aa(lp1302
I00
aI00
aI00
aa(lp1303
I00
aI00
aI00
aa(lp1304
I00
aI00
aI00
aa(lp1305
I00
aI00
aI00
aa(lp1306
I00
aI00
aI00
aa(lp1307
I00
aI00
aI00
aa(lp1308
I00
aI00
aI00
aa(lp1309
I00
aI01
aI00
aa(lp1310
I00
aI00
aI00
aasg35
I3
sbsg36
(lp1311
(I01
(I5
I1
tp1312
tp1313
a(I00
(I1
I1
tp1314
tp1315
asg35
I3
sg23
I10
sg42
(igame
Grid
p1316
(dp1317
g22
I30
sg23
I10
sg9
(lp1318
(lp1319
I01
aI01
aI01
aa(lp1320
I01
aI00
aI01
aa(lp1321
I01
aI00
aI01
aa(lp1322
I01
aI00
aI01
aa(lp1323
I01
aI00
aI01
aa(lp1324
I01
aI00
aI01
aa(lp1325
I01
aI00
aI01
aa(lp1326
I01
aI00
aI01
aa(lp1327
I01
aI00
aI01
aa(lp1328
I01
aI01
aI01
aasg35
I3
sbsg56
I1
sg57
(lp1329
g222
ag223
ag224
asbsg19
(igame
Grid
p1330
(dp1331
g22
I30
sg23
I10
sg9
(lp1332
(lp1333
I00
aI00
aI00
aa(lp1334
I00
aI00
aI00
aa(lp1335
I00
aI00
aI00
aa(lp1336
I00
aI00
aI00
aa(lp1337
I00
aI00
aI00
aa(lp1338
I00
aI00
aI00
aa(lp1339
I00
aI00
aI00
aa(lp1340
I00
aI00
aI00
aa(lp1341
I00
aI01
aI00
aa(lp1342
I00
aI00
aI00
aasg35
I3
sbsg75
Nsg76
(lp1343
(igame
AgentState
p1344
(dp1345
g80
I0
sg81
I0
sg82
g241
sg89
I0
sg90
(igame
Configuration
p1346
(dp1347
g85
g247
sg87
(I6
I1
tp1348
sbsg95
I01
sba(igame
AgentState
p1349
(dp1350
g80
I0
sg81
I0
sg82
g251
sg89
I0
sg90
(igame
Configuration
p1351
(dp1352
g85
g247
sg87
(F3.0
F1.0
tp1353
sbsg95
I00
sbasg104
I00
sg105
(lp1354
I00
aI00
asg107
I-2
sg108
I1
sg109
I00
sg110
I0
sg16
(lp1355
sg112
Nsbsbstp1356
Rp1357
sS'transitionTable'
p1358
g2
(g3
g4
(dp1359
((I7
I1
I1
I0
I-2
I0
tp1360
g315
tp1361
g2
(g3
g4
(dp1362
g259
I10
stp1363
Rp1364
s((I7
I1
I1
I0
I-4
I0
tp1365
g86
tp1366
g2
(g3
g4
(dp1367
(I7
I1
I1
I0
I-3
I0
tp1368
I9
stp1369
Rp1370
s((I4
I1
I4
I0
I-2
I0
tp1371
g86
tp1372
g2
(g3
g4
(dp1373
(I4
I1
I4
I0
I-1
I0
tp1374
I23
stp1375
Rp1376
s(g1224
g315
tp1377
g2
(g3
g4
(dp1378
g730
I21
stp1379
Rp1380
s((I7
I1
I1
I0
I-1
I0
tp1381
g619
tp1382
g2
(g3
g4
(dp1383
(I6
I1
I2
I0
I0
I0
tp1384
I9
stp1385
Rp1386
s(g836
g247
tp1387
g2
(g3
g4
(dp1388
g628
I11
stp1389
Rp1390
s((I5
I1
I3
I0
I-1
I0
tp1391
g93
tp1392
g2
(g3
g4
(dp1393
(I6
I1
I2
I0
I-1
I0
tp1394
I26
stp1395
Rp1396
s((I4
I1
I4
I0
I-1
I0
tp1397
g619
tp1398
g2
(g3
g4
(dp1399
(I3
I1
I5
I0
I0
I0
tp1400
I15
stp1401
Rp1402
s(g1224
g247
tp1403
g2
(g3
g4
(dp1404
g421
I25
stp1405
Rp1406
s((I5
I1
I3
I0
I-2
I0
tp1407
g86
tp1408
g2
(g3
g4
(dp1409
(I5
I1
I3
I0
I-1
I0
tp1410
I32
stp1411
Rp1412
s(g836
g315
tp1413
g2
(g3
g4
(dp1414
g902
I10
stp1415
Rp1416
s(g1290
g243
tp1417
g2
(g3
g4
(dp1418
(I6
I1
I2
I0
I-2
I0
tp1419
I15
stp1420
Rp1421
s((I6
I1
I2
I0
I-4
I0
tp1422
g243
tp1423
g2
(g3
g4
(dp1424
g1290
I26
stp1425
Rp1426
s((I7
I1
I1
I0
I-3
I0
tp1427
g243
tp1428
g2
(g3
g4
(dp1429
g182
I11
stp1430
Rp1431
s(g1003
g243
tp1432
g2
(g3
g4
(dp1433
g324
I67
stp1434
Rp1435
s((I6
I1
I2
I0
I-2
I0
tp1436
g86
tp1437
g2
(g3
g4
(dp1438
(I6
I1
I2
I0
I-1
I0
tp1439
I17
stp1440
Rp1441
s((I4
I1
I4
I0
I-1
I0
tp1442
g86
tp1443
g2
(g3
g4
(dp1444
(I4
I1
I4
I0
I0
I0
tp1445
I16
stp1446
Rp1447
s((I6
I1
I2
I0
I-1
I0
tp1448
g86
tp1449
g2
(g3
g4
(dp1450
(I6
I1
I2
I0
I0
I0
tp1451
I16
stp1452
Rp1453
s((I4
I1
I4
I0
I-1
I0
tp1454
g93
tp1455
g2
(g3
g4
(dp1456
g6
I17
stp1457
Rp1458
s(g182
g243
tp1459
g2
(g3
g4
(dp1460
(I7
I1
I1
I0
I-1
I0
tp1461
I11
stp1462
Rp1463
s((I6
I1
I2
I0
I-2
I0
tp1464
g619
tp1465
g2
(g3
g4
(dp1466
(I5
I1
I3
I0
I0
I0
tp1467
I12
stp1468
Rp1469
s((I4
I1
I4
I0
I-2
I0
tp1470
g619
tp1471
g2
(g3
g4
(dp1472
g1158
I15
stp1473
Rp1474
s((I5
I1
I3
I0
I-1
I0
tp1475
g619
tp1476
g2
(g3
g4
(dp1477
(I4
I1
I4
I0
I0
I0
tp1478
I18
stp1479
Rp1480
s((I6
I1
I2
I0
I-1
I0
tp1481
g93
tp1482
g2
(g3
g4
(dp1483
g1063
I17
stp1484
Rp1485
s(g1290
g315
tp1486
g2
(g3
g4
(dp1487
(I5
I1
I3
I0
I-1
I0
tp1488
I15
stp1489
Rp1490
s(g1003
g315
tp1491
g2
(g3
g4
(dp1492
g664
I69
stp1493
Rp1494
s((I7
I1
I1
I0
I-1
I0
tp1495
g93
tp1496
g2
(g3
g4
(dp1497
g113
I10
stp1498
Rp1499
s((I7
I1
I1
I0
I-1
I0
tp1500
g86
tp1501
g2
(g3
g4
(dp1502
g1193
I10
stp1503
Rp1504
s((I5
I1
I3
I0
I-2
I0
tp1505
g93
tp1506
g2
(g3
g4
(dp1507
g491
I20
stp1508
Rp1509
s((I5
I1
I3
I0
I-1
I0
tp1510
g86
tp1511
g2
(g3
g4
(dp1512
g390
I20
stp1513
Rp1514
s((I6
I1
I2
I0
I-1
I0
tp1515
g619
tp1516
g2
(g3
g4
(dp1517
(I5
I1
I3
I0
I0
I0
tp1518
I20
stp1519
Rp1520
s(g1003
g247
tp1521
g2
(g3
g4
(dp1522
g1224
I70
stp1523
Rp1524
s((I4
I1
I4
I0
I-2
I0
tp1525
g93
tp1526
g2
(g3
g4
(dp1527
(I5
I1
I3
I0
I-2
I0
tp1528
I33
stp1529
Rp1530
s((I5
I1
I3
I0
I-3
I0
tp1531
g86
tp1532
g2
(g3
g4
(dp1533
(I5
I1
I3
I0
I-2
I0
tp1534
I20
stp1535
Rp1536
s((I6
I1
I2
I0
I-2
I0
tp1537
g93
tp1538
g2
(g3
g4
(dp1539
(I7
I1
I1
I0
I-2
I0
tp1540
I13
stp1541
Rp1542
s((I5
I1
I3
I0
I-2
I0
tp1543
g619
tp1544
g2
(g3
g4
(dp1545
g972
I22
stp1546
Rp1547
s((I6
I1
I2
I0
I-3
I0
tp1548
g247
tp1549
g2
(g3
g4
(dp1550
g836
I22
stp1551
Rp1552
s((I5
I1
I3
I0
I-3
I0
tp1553
g93
tp1554
g2
(g3
g4
(dp1555
(I6
I1
I2
I0
I-3
I0
tp1556
I25
stp1557
Rp1558
s((I7
I1
I1
I0
I-4
I0
tp1559
g619
tp1560
g2
(g3
g4
(dp1561
(I6
I1
I2
I0
I-2
I0
tp1562
I7
stp1563
Rp1564
s(g182
g247
tp1565
g2
(g3
g4
(dp1566
g800
I4
stp1567
Rp1568
s((I5
I1
I3
I0
I-3
I0
tp1569
g619
tp1570
g2
(g3
g4
(dp1571
g561
I24
stp1572
Rp1573
s((I7
I1
I1
I0
I-4
I0
tp1574
g93
tp1575
g2
(g3
g4
(dp1576
g1129
I11
stp1577
Rp1578
stp1579
Rp1580
sS'reward'
p1581
g2
(g3
g4
(dp1582
g6
(lp1583
I122
a(lp1584
F-3.0
aF-3.0
aF-3.0
aF-3.0
aF-3.0
aF-3.0
aF-3.0
aF-3.0
aF-3.0
aF-3.0
aF-3.0
aF-3.0
aF-3.0
aF-3.0
aF-3.0
aF-3.0
aF-3.0
aF-3.0
aF-3.0
aF-3.0
aF-3.0
aF-3.0
aF-3.0
aF-3.0
aF-3.0
aF-3.0
aF-3.0
aF-3.0
aF-3.0
aF-3.0
aF-3.0
aF-3.0
aF-3.0
aF-3.0
aF-3.0
aF-3.0
aF-3.0
aF-3.0
aF-3.0
aF-3.0
aF-3.0
aF-3.0
aF-3.0
aF-3.0
aF-3.0
aF-3.0
aF-3.0
aF-3.0
aF-3.0
aF-3.0
aF-3.0
aF-3.0
aF-3.0
aF-3.0
aF-3.0
aF-3.0
aF-3.0
aF-3.0
aF-3.0
aF-3.0
aF-3.0
aF-3.0
aF-3.0
aF-3.0
aF-3.0
aF-3.0
aF-3.0
aF-3.0
aF-3.0
aF-3.0
aF-3.0
aF-3.0
aF-3.0
aF-3.0
aF-3.0
aF-3.0
aF-3.0
aF-3.0
aF-3.0
aF-3.0
aF-3.0
aF-3.0
aF-3.0
aF-3.0
aF-3.0
aF-3.0
aF-3.0
aF-3.0
aF-3.0
aF-3.0
aF-3.0
aF-3.0
aF-3.0
aF-3.0
aF-3.0
aF-3.0
aF-3.0
aF-3.0
aF-3.0
aF-3.0
aF-3.0
aF-3.0
aF-3.0
aF-3.0
aF-3.0
aF-3.0
aF-3.0
aF-3.0
aF-3.0
aF-3.0
aF-3.0
aF-3.0
aF-3.0
aF-3.0
aF-3.0
aF-3.0
aF-3.0
aF-3.0
aF-3.0
aF-3.0
aF-3.0
aF-3.0
aasg113
(lp1585
I9
a(lp1586
F504.0
aF504.0
aF504.0
aF504.0
aF504.0
aF504.0
aF504.0
aF504.0
aF504.0
aasg182
(lp1587
I44
a(lp1588
F-4.0
aF-4.0
aF-4.0
aF-4.0
aF-4.0
aF-4.0
aF-4.0
aF-4.0
aF-4.0
aF-4.0
aF-4.0
aF-4.0
aF-4.0
aF-4.0
aF-4.0
aF-4.0
aF-4.0
aF-4.0
aF-4.0
aF-4.0
aF-4.0
aF-4.0
aF-4.0
aF-4.0
aF-4.0
aF-4.0
aF-4.0
aF-4.0
aF-4.0
aF-4.0
aF-4.0
aF-4.0
aF-4.0
aF-4.0
aF-4.0
aF-4.0
aF-4.0
aF-4.0
aF-4.0
aF-4.0
aF-4.0
aF-4.0
aF-4.0
aF-4.0
aasg259
(lp1589
I32
a(lp1590
F-505.0
aF-505.0
aF-505.0
aF-506.0
aF-505.0
aF-506.0
aF-505.0
aF-505.0
aF-505.0
aF-505.0
aF-505.0
aF-505.0
aF-506.0
aF-506.0
aF-505.0
aF-505.0
aF-505.0
aF-505.0
aF-505.0
aF-505.0
aF-505.0
aF-506.0
aF-506.0
aF-505.0
aF-506.0
aF-505.0
aF-505.0
aF-505.0
aF-505.0
aF-506.0
aF-505.0
aF-505.0
aasg324
(lp1591
I132
a(lp1592
F-1.0
aF-1.0
aF-1.0
aF-1.0
aF-1.0
aF-1.0
aF-1.0
aF-1.0
aF-1.0
aF-1.0
aF-1.0
aF-1.0
aF-1.0
aF-1.0
aF-1.0
aF-1.0
aF-1.0
aF-1.0
aF-1.0
aF-1.0
aF-1.0
aF-1.0
aF-1.0
aF-1.0
aF-1.0
aF-1.0
aF-1.0
aF-1.0
aF-1.0
aF-1.0
aF-1.0
aF-1.0
aF-1.0
aF-1.0
aF-1.0
aF-1.0
aF-1.0
aF-1.0
aF-1.0
aF-1.0
aF-1.0
aF-1.0
aF-1.0
aF-1.0
aF-1.0
aF-1.0
aF-1.0
aF-1.0
aF-1.0
aF-1.0
aF-1.0
aF-1.0
aF-1.0
aF-1.0
aF-1.0
aF-1.0
aF-1.0
aF-1.0
aF-1.0
aF-1.0
aF-1.0
aF-1.0
aF-1.0
aF-1.0
aF-1.0
aF-1.0
aF-1.0
aF-1.0
aF-1.0
aF-1.0
aF-1.0
aF-1.0
aF-1.0
aF-1.0
aF-1.0
aF-1.0
aF-1.0
aF-1.0
aF-1.0
aF-1.0
aF-1.0
aF-1.0
aF-1.0
aF-1.0
aF-1.0
aF-1.0
aF-1.0
aF-1.0
aF-1.0
aF-1.0
aF-1.0
aF-1.0
aF-1.0
aF-1.0
aF-1.0
aF-1.0
aF-1.0
aF-1.0
aF-1.0
aF-1.0
aF-1.0
aF-1.0
aF-1.0
aF-1.0
aF-1.0
aF-1.0
aF-1.0
aF-1.0
aF-1.0
aF-1.0
aF-1.0
aF-1.0
aF-1.0
aF-1.0
aF-1.0
aF-1.0
aF-1.0
aF-1.0
aF-1.0
aF-1.0
aF-1.0
aF-1.0
aF-1.0
aF-1.0
aF-1.0
aF-1.0
aF-1.0
aF-1.0
aF-1.0
aF-1.0
aF-1.0
aF-1.0
aasg390
(lp1593
I49
a(lp1594
F-504.0
aF-504.0
aF-504.0
aF-504.0
aF-504.0
aF-505.0
aF-504.0
aF-504.0
aF-504.0
aF-505.0
aF-504.0
aF-504.0
aF-504.0
aF-504.0
aF-504.0
aF-504.0
aF-504.0
aF-505.0
aF-505.0
aF-505.0
aF-504.0
aF-504.0
aF-505.0
aF-504.0
aF-505.0
aF-505.0
aF-505.0
aF-504.0
aF-504.0
aF-505.0
aF-504.0
aF-505.0
aF-504.0
aF-504.0
aF-504.0
aF-505.0
aF-505.0
aF-505.0
aF-504.0
aF-505.0
aF-504.0
aF-504.0
aF-504.0
aF-505.0
aF-505.0
aF-504.0
aF-505.0
aF-504.0
aF-505.0
aasg421
(lp1595
I48
a(lp1596
F-2.0
aF-2.0
aF-2.0
aF-2.0
aF-2.0
aF-2.0
aF-2.0
aF-2.0
aF-2.0
aF-2.0
aF-2.0
aF-2.0
aF-2.0
aF-2.0
aF-2.0
aF-2.0
aF-2.0
aF-2.0
aF-2.0
aF-2.0
aF-2.0
aF-2.0
aF-2.0
aF-2.0
aF-2.0
aF-2.0
aF-2.0
aF-2.0
aF-2.0
aF-2.0
aF-2.0
aF-2.0
aF-2.0
aF-2.0
aF-2.0
aF-2.0
aF-2.0
aF-2.0
aF-2.0
aF-2.0
aF-2.0
aF-2.0
aF-2.0
aF-2.0
aF-2.0
aF-2.0
aF-2.0
aF-2.0
aasg491
(lp1597
I78
a(lp1598
F-3.0
aF-3.0
aF-3.0
aF-3.0
aF-3.0
aF-3.0
aF-3.0
aF-3.0
aF-3.0
aF-3.0
aF-3.0
aF-3.0
aF-3.0
aF-3.0
aF-3.0
aF-3.0
aF-3.0
aF-3.0
aF-3.0
aF-3.0
aF-3.0
aF-3.0
aF-3.0
aF-3.0
aF-3.0
aF-3.0
aF-3.0
aF-3.0
aF-3.0
aF-3.0
aF-3.0
aF-3.0
aF-3.0
aF-3.0
aF-3.0
aF-3.0
aF-3.0
aF-3.0
aF-3.0
aF-3.0
aF-3.0
aF-3.0
aF-3.0
aF-3.0
aF-3.0
aF-3.0
aF-3.0
aF-3.0
aF-3.0
aF-3.0
aF-3.0
aF-3.0
aF-3.0
aF-3.0
aF-3.0
aF-3.0
aF-3.0
aF-3.0
aF-3.0
aF-3.0
aF-3.0
aF-3.0
aF-3.0
aF-3.0
aF-3.0
aF-3.0
aF-3.0
aF-3.0
aF-3.0
aF-3.0
aF-3.0
aF-3.0
aF-3.0
aF-3.0
aF-3.0
aF-3.0
aF-3.0
aF-3.0
aasg561
(lp1599
I90
a(lp1600
F-2.0
aF-2.0
aF-2.0
aF-2.0
aF-2.0
aF-2.0
aF-2.0
aF-2.0
aF-2.0
aF-2.0
aF-2.0
aF-2.0
aF-2.0
aF-2.0
aF-2.0
aF-2.0
aF-2.0
aF-2.0
aF-2.0
aF-2.0
aF-2.0
aF-2.0
aF-2.0
aF-2.0
aF-2.0
aF-2.0
aF-2.0
aF-2.0
aF-2.0
aF-2.0
aF-2.0
aF-2.0
aF-2.0
aF-2.0
aF-2.0
aF-2.0
aF-2.0
aF-2.0
aF-2.0
aF-2.0
aF-2.0
aF-2.0
aF-2.0
aF-2.0
aF-2.0
aF-2.0
aF-2.0
aF-2.0
aF-2.0
aF-2.0
aF-2.0
aF-2.0
aF-2.0
aF-2.0
aF-2.0
aF-2.0
aF-2.0
aF-2.0
aF-2.0
aF-2.0
aF-2.0
aF-2.0
aF-2.0
aF-2.0
aF-2.0
aF-2.0
aF-2.0
aF-2.0
aF-2.0
aF-2.0
aF-2.0
aF-2.0
aF-2.0
aF-2.0
aF-2.0
aF-2.0
aF-2.0
aF-2.0
aF-2.0
aF-2.0
aF-2.0
aF-2.0
aF-2.0
aF-2.0
aF-2.0
aF-2.0
aF-2.0
aF-2.0
aF-2.0
aF-2.0
aasg628
(lp1601
I10
a(lp1602
F506.0
aF506.0
aF506.0
aF506.0
aF506.0
aF506.0
aF506.0
aF506.0
aF506.0
aF506.0
aasg664
(lp1603
I136
a(lp1604
F-1.0
aF-1.0
aF-1.0
aF-1.0
aF-1.0
aF-1.0
aF-1.0
aF-1.0
aF-1.0
aF-1.0
aF-1.0
aF-1.0
aF-1.0
aF-1.0
aF-1.0
aF-1.0
aF-1.0
aF-1.0
aF-1.0
aF-1.0
aF-1.0
aF-1.0
aF-1.0
aF-1.0
aF-1.0
aF-1.0
aF-1.0
aF-1.0
aF-1.0
aF-1.0
aF-1.0
aF-1.0
aF-1.0
aF-1.0
aF-1.0
aF-1.0
aF-1.0
aF-1.0
aF-1.0
aF-1.0
aF-1.0
aF-1.0
aF-1.0
aF-1.0
aF-1.0
aF-1.0
aF-1.0
aF-1.0
aF-1.0
aF-1.0
aF-1.0
aF-1.0
aF-1.0
aF-1.0
aF-1.0
aF-1.0
aF-1.0
aF-1.0
aF-1.0
aF-1.0
aF-1.0
aF-1.0
aF-1.0
aF-1.0
aF-1.0
aF-1.0
aF-1.0
aF-1.0
aF-1.0
aF-1.0
aF-1.0
aF-1.0
aF-1.0
aF-1.0
aF-1.0
aF-1.0
aF-1.0
aF-1.0
aF-1.0
aF-1.0
aF-1.0
aF-1.0
aF-1.0
aF-1.0
aF-1.0
aF-1.0
aF-1.0
aF-1.0
aF-1.0
aF-1.0
aF-1.0
aF-1.0
aF-1.0
aF-1.0
aF-1.0
aF-1.0
aF-1.0
aF-1.0
aF-1.0
aF-1.0
aF-1.0
aF-1.0
aF-1.0
aF-1.0
aF-1.0
aF-1.0
aF-1.0
aF-1.0
aF-1.0
aF-1.0
aF-1.0
aF-1.0
aF-1.0
aF-1.0
aF-1.0
aF-1.0
aF-1.0
aF-1.0
aF-1.0
aF-1.0
aF-1.0
aF-1.0
aF-1.0
aF-1.0
aF-1.0
aF-1.0
aF-1.0
aF-1.0
aF-1.0
aF-1.0
aF-1.0
aF-1.0
aF-1.0
aF-1.0
aF-1.0
aF-1.0
aasg730
(lp1605
I142
a(lp1606
F-2.0
aF-2.0
aF-2.0
aF-2.0
aF-2.0
aF-2.0
aF-2.0
aF-2.0
aF-2.0
aF-2.0
aF-2.0
aF-2.0
aF-2.0
aF-2.0
aF-2.0
aF-2.0
aF-2.0
aF-2.0
aF-2.0
aF-2.0
aF-2.0
aF-2.0
aF-2.0
aF-2.0
aF-2.0
aF-2.0
aF-2.0
aF-2.0
aF-2.0
aF-2.0
aF-2.0
aF-2.0
aF-2.0
aF-2.0
aF-2.0
aF-2.0
aF-2.0
aF-2.0
aF-2.0
aF-2.0
aF-2.0
aF-2.0
aF-2.0
aF-2.0
aF-2.0
aF-2.0
aF-2.0
aF-2.0
aF-2.0
aF-2.0
aF-2.0
aF-2.0
aF-2.0
aF-2.0
aF-2.0
aF-2.0
aF-2.0
aF-2.0
aF-2.0
aF-2.0
aF-2.0
aF-2.0
aF-2.0
aF-2.0
aF-2.0
aF-2.0
aF-2.0
aF-2.0
aF-2.0
aF-2.0
aF-2.0
aF-2.0
aF-2.0
aF-2.0
aF-2.0
aF-2.0
aF-2.0
aF-2.0
aF-2.0
aF-2.0
aF-2.0
aF-2.0
aF-2.0
aF-2.0
aF-2.0
aF-2.0
aF-2.0
aF-2.0
aF-2.0
aF-2.0
aF-2.0
aF-2.0
aF-2.0
aF-2.0
aF-2.0
aF-2.0
aF-2.0
aF-2.0
aF-2.0
aF-2.0
aF-2.0
aF-2.0
aF-2.0
aF-2.0
aF-2.0
aF-2.0
aF-2.0
aF-2.0
aF-2.0
aF-2.0
aF-2.0
aF-2.0
aF-2.0
aF-2.0
aF-2.0
aF-2.0
aF-2.0
aF-2.0
aF-2.0
aF-2.0
aF-2.0
aF-2.0
aF-2.0
aF-2.0
aF-2.0
aF-2.0
aF-2.0
aF-2.0
aF-2.0
aF-2.0
aF-2.0
aF-2.0
aF-2.0
aF-2.0
aF-2.0
aF-2.0
aF-2.0
aF-2.0
aF-2.0
aF-2.0
aF-2.0
aF-2.0
aasg800
(lp1607
I3
a(lp1608
F505.0
aF505.0
aF505.0
aasg836
(lp1609
I58
a(lp1610
F-3.0
aF-3.0
aF-3.0
aF-3.0
aF-3.0
aF-3.0
aF-3.0
aF-3.0
aF-3.0
aF-3.0
aF-3.0
aF-3.0
aF-3.0
aF-3.0
aF-3.0
aF-3.0
aF-3.0
aF-3.0
aF-3.0
aF-3.0
aF-3.0
aF-3.0
aF-3.0
aF-3.0
aF-3.0
aF-3.0
aF-3.0
aF-3.0
aF-3.0
aF-3.0
aF-3.0
aF-3.0
aF-3.0
aF-3.0
aF-3.0
aF-3.0
aF-3.0
aF-3.0
aF-3.0
aF-3.0
aF-3.0
aF-3.0
aF-3.0
aF-3.0
aF-3.0
aF-3.0
aF-3.0
aF-3.0
aF-3.0
aF-3.0
aF-3.0
aF-3.0
aF-3.0
aF-3.0
aF-3.0
aF-3.0
aF-3.0
aF-3.0
aasg902
(lp1611
I100
a(lp1612
F-4.0
aF-4.0
aF-4.0
aF-4.0
aF-4.0
aF-4.0
aF-4.0
aF-4.0
aF-4.0
aF-4.0
aF-4.0
aF-4.0
aF-4.0
aF-4.0
aF-4.0
aF-4.0
aF-4.0
aF-4.0
aF-4.0
aF-4.0
aF-4.0
aF-4.0
aF-4.0
aF-4.0
aF-4.0
aF-4.0
aF-4.0
aF-4.0
aF-4.0
aF-4.0
aF-4.0
aF-4.0
aF-4.0
aF-4.0
aF-4.0
aF-4.0
aF-4.0
aF-4.0
aF-4.0
aF-4.0
aF-4.0
aF-4.0
aF-4.0
aF-4.0
aF-4.0
aF-4.0
aF-4.0
aF-4.0
aF-4.0
aF-4.0
aF-4.0
aF-4.0
aF-4.0
aF-4.0
aF-4.0
aF-4.0
aF-4.0
aF-4.0
aF-4.0
aF-4.0
aF-4.0
aF-4.0
aF-4.0
aF-4.0
aF-4.0
aF-4.0
aF-4.0
aF-4.0
aF-4.0
aF-4.0
aF-4.0
aF-4.0
aF-4.0
aF-4.0
aF-4.0
aF-4.0
aF-4.0
aF-4.0
aF-4.0
aF-4.0
aF-4.0
aF-4.0
aF-4.0
aF-4.0
aF-4.0
aF-4.0
aF-4.0
aF-4.0
aF-4.0
aF-4.0
aF-4.0
aF-4.0
aF-4.0
aF-4.0
aF-4.0
aF-4.0
aF-4.0
aF-4.0
aF-4.0
aF-4.0
aasg972
(lp1613
I53
a(lp1614
F-503.0
aF-503.0
aF-503.0
aF-503.0
aF-504.0
aF-503.0
aF-503.0
aF-503.0
aF-504.0
aF-503.0
aF-503.0
aF-503.0
aF-503.0
aF-503.0
aF-504.0
aF-503.0
aF-504.0
aF-503.0
aF-504.0
aF-503.0
aF-503.0
aF-503.0
aF-503.0
aF-503.0
aF-503.0
aF-503.0
aF-503.0
aF-503.0
aF-503.0
aF-504.0
aF-503.0
aF-504.0
aF-503.0
aF-503.0
aF-503.0
aF-503.0
aF-504.0
aF-503.0
aF-504.0
aF-503.0
aF-504.0
aF-504.0
aF-503.0
aF-504.0
aF-503.0
aF-504.0
aF-503.0
aF-504.0
aF-504.0
aF-503.0
aF-504.0
aF-503.0
aF-504.0
aasg1003
(lp1615
I203
a(lp1616
F0.0
aF0.0
aF0.0
aF0.0
aF0.0
aF0.0
aF0.0
aF0.0
aF0.0
aF0.0
aF0.0
aF0.0
aF0.0
aF0.0
aF0.0
aF0.0
aF0.0
aF0.0
aF0.0
aF0.0
aF0.0
aF0.0
aF0.0
aF0.0
aF0.0
aF0.0
aF0.0
aF0.0
aF0.0
aF0.0
aF0.0
aF0.0
aF0.0
aF0.0
aF0.0
aF0.0
aF0.0
aF0.0
aF0.0
aF0.0
aF0.0
aF0.0
aF0.0
aF0.0
aF0.0
aF0.0
aF0.0
aF0.0
aF0.0
aF0.0
aF0.0
aF0.0
aF0.0
aF0.0
aF0.0
aF0.0
aF0.0
aF0.0
aF0.0
aF0.0
aF0.0
aF0.0
aF0.0
aF0.0
aF0.0
aF0.0
aF0.0
aF0.0
aF0.0
aF0.0
aF0.0
aF0.0
aF0.0
aF0.0
aF0.0
aF0.0
aF0.0
aF0.0
aF0.0
aF0.0
aF0.0
aF0.0
aF0.0
aF0.0
aF0.0
aF0.0
aF0.0
aF0.0
aF0.0
aF0.0
aF0.0
aF0.0
aF0.0
aF0.0
aF0.0
aF0.0
aF0.0
aF0.0
aF0.0
aF0.0
aF0.0
aF0.0
aF0.0
aF0.0
aF0.0
aF0.0
aF0.0
aF0.0
aF0.0
aF0.0
aF0.0
aF0.0
aF0.0
aF0.0
aF0.0
aF0.0
aF0.0
aF0.0
aF0.0
aF0.0
aF0.0
aF0.0
aF0.0
aF0.0
aF0.0
aF0.0
aF0.0
aF0.0
aF0.0
aF0.0
aF0.0
aF0.0
aF0.0
aF0.0
aF0.0
aF0.0
aF0.0
aF0.0
aF0.0
aF0.0
aF0.0
aF0.0
aF0.0
aF0.0
aF0.0
aF0.0
aF0.0
aF0.0
aF0.0
aF0.0
aF0.0
aF0.0
aF0.0
aF0.0
aF0.0
aF0.0
aF0.0
aF0.0
aF0.0
aF0.0
aF0.0
aF0.0
aF0.0
aF0.0
aF0.0
aF0.0
aF0.0
aF0.0
aF0.0
aF0.0
aF0.0
aF0.0
aF0.0
aF0.0
aF0.0
aF0.0
aF0.0
aF0.0
aF0.0
aF0.0
aF0.0
aF0.0
aF0.0
aF0.0
aF0.0
aF0.0
aF0.0
aF0.0
aF0.0
aF0.0
aF0.0
aF0.0
aF0.0
aF0.0
aF0.0
aF0.0
aF0.0
aF0.0
aF0.0
aF0.0
aF0.0
aF0.0
aF0.0
aasg1063
(lp1617
I52
a(lp1618
F-5.0
aF-5.0
aF-5.0
aF-5.0
aF-5.0
aF-5.0
aF-5.0
aF-5.0
aF-5.0
aF-5.0
aF-5.0
aF-5.0
aF-5.0
aF-5.0
aF-5.0
aF-5.0
aF-5.0
aF-5.0
aF-5.0
aF-5.0
aF-5.0
aF-5.0
aF-5.0
aF-5.0
aF-5.0
aF-5.0
aF-5.0
aF-5.0
aF-5.0
aF-5.0
aF-5.0
aF-5.0
aF-5.0
aF-5.0
aF-5.0
aF-5.0
aF-5.0
aF-5.0
aF-5.0
aF-5.0
aF-5.0
aF-5.0
aF-5.0
aF-5.0
aF-5.0
aF-5.0
aF-5.0
aF-5.0
aF-5.0
aF-5.0
aF-5.0
aF-5.0
aasg1129
(lp1619
I10
a(lp1620
F507.0
aF507.0
aF507.0
aF507.0
aF507.0
aF507.0
aF507.0
aF507.0
aF507.0
aF507.0
aasg1158
(lp1621
I28
a(lp1622
F-502.0
aF-502.0
aF-503.0
aF-503.0
aF-502.0
aF-502.0
aF-503.0
aF-503.0
aF-502.0
aF-503.0
aF-503.0
aF-503.0
aF-502.0
aF-502.0
aF-502.0
aF-502.0
aF-503.0
aF-502.0
aF-502.0
aF-502.0
aF-502.0
aF-503.0
aF-503.0
aF-502.0
aF-503.0
aF-503.0
aF-503.0
aF-503.0
aasg1193
(lp1623
I9
a(lp1624
F-506.0
aF-506.0
aF-506.0
aF-506.0
aF-506.0
aF-506.0
aF-506.0
aF-506.0
aF-506.0
aasg1224
(lp1625
I138
a(lp1626
F-1.0
aF-1.0
aF-1.0
aF-1.0
aF-1.0
aF-1.0
aF-1.0
aF-1.0
aF-1.0
aF-1.0
aF-1.0
aF-1.0
aF-1.0
aF-1.0
aF-1.0
aF-1.0
aF-1.0
aF-1.0
aF-1.0
aF-1.0
aF-1.0
aF-1.0
aF-1.0
aF-1.0
aF-1.0
aF-1.0
aF-1.0
aF-1.0
aF-1.0
aF-1.0
aF-1.0
aF-1.0
aF-1.0
aF-1.0
aF-1.0
aF-1.0
aF-1.0
aF-1.0
aF-1.0
aF-1.0
aF-1.0
aF-1.0
aF-1.0
aF-1.0
aF-1.0
aF-1.0
aF-1.0
aF-1.0
aF-1.0
aF-1.0
aF-1.0
aF-1.0
aF-1.0
aF-1.0
aF-1.0
aF-1.0
aF-1.0
aF-1.0
aF-1.0
aF-1.0
aF-1.0
aF-1.0
aF-1.0
aF-1.0
aF-1.0
aF-1.0
aF-1.0
aF-1.0
aF-1.0
aF-1.0
aF-1.0
aF-1.0
aF-1.0
aF-1.0
aF-1.0
aF-1.0
aF-1.0
aF-1.0
aF-1.0
aF-1.0
aF-1.0
aF-1.0
aF-1.0
aF-1.0
aF-1.0
aF-1.0
aF-1.0
aF-1.0
aF-1.0
aF-1.0
aF-1.0
aF-1.0
aF-1.0
aF-1.0
aF-1.0
aF-1.0
aF-1.0
aF-1.0
aF-1.0
aF-1.0
aF-1.0
aF-1.0
aF-1.0
aF-1.0
aF-1.0
aF-1.0
aF-1.0
aF-1.0
aF-1.0
aF-1.0
aF-1.0
aF-1.0
aF-1.0
aF-1.0
aF-1.0
aF-1.0
aF-1.0
aF-1.0
aF-1.0
aF-1.0
aF-1.0
aF-1.0
aF-1.0
aF-1.0
aF-1.0
aF-1.0
aF-1.0
aF-1.0
aF-1.0
aF-1.0
aF-1.0
aF-1.0
aF-1.0
aF-1.0
aF-1.0
aF-1.0
aF-1.0
aF-1.0
aasg1290
(lp1627
I98
a(lp1628
F-2.0
aF-2.0
aF-2.0
aF-2.0
aF-2.0
aF-2.0
aF-2.0
aF-2.0
aF-2.0
aF-2.0
aF-2.0
aF-2.0
aF-2.0
aF-2.0
aF-2.0
aF-2.0
aF-2.0
aF-2.0
aF-2.0
aF-2.0
aF-2.0
aF-2.0
aF-2.0
aF-2.0
aF-2.0
aF-2.0
aF-2.0
aF-2.0
aF-2.0
aF-2.0
aF-2.0
aF-2.0
aF-2.0
aF-2.0
aF-2.0
aF-2.0
aF-2.0
aF-2.0
aF-2.0
aF-2.0
aF-2.0
aF-2.0
aF-2.0
aF-2.0
aF-2.0
aF-2.0
aF-2.0
aF-2.0
aF-2.0
aF-2.0
aF-2.0
aF-2.0
aF-2.0
aF-2.0
aF-2.0
aF-2.0
aF-2.0
aF-2.0
aF-2.0
aF-2.0
aF-2.0
aF-2.0
aF-2.0
aF-2.0
aF-2.0
aF-2.0
aF-2.0
aF-2.0
aF-2.0
aF-2.0
aF-2.0
aF-2.0
aF-2.0
aF-2.0
aF-2.0
aF-2.0
aF-2.0
aF-2.0
aF-2.0
aF-2.0
aF-2.0
aF-2.0
aF-2.0
aF-2.0
aF-2.0
aF-2.0
aF-2.0
aF-2.0
aF-2.0
aF-2.0
aF-2.0
aF-2.0
aF-2.0
aF-2.0
aF-2.0
aF-2.0
aF-2.0
aF-2.0
aastp1629
Rp1630
s.